; ModuleID = '31/1928.c'
source_filename = "31/1928.c"
target datalayout = "e-m:e-p270:32:32-p271:32:32-p272:64:64-i64:64-f80:128-n8:16:32:64-S128"
target triple = "x86_64-pc-linux-gnu"

%struct.student = type { [30 x i8], [30 x i8], i8, i32, [30 x i8], [30 x i8], %struct.student* }

@n = dso_local global i32 0, align 4
@.str = private unnamed_addr constant [18 x i8] c"%s %s %c %d %s %s\00", align 1
@.str.1 = private unnamed_addr constant [3 x i8] c"%s\00", align 1
@.str.2 = private unnamed_addr constant [4 x i8] c"end\00", align 1
@.str.3 = private unnamed_addr constant [15 x i8] c"%s %c %d %s %s\00", align 1
@.str.4 = private unnamed_addr constant [19 x i8] c"%s %s %c %d %s %s\0A\00", align 1

; Function Attrs: noinline nounwind uwtable
define dso_local void @main() #0 {
  %1 = alloca %struct.student*, align 8
  %2 = alloca %struct.student*, align 8
  %3 = alloca %struct.student*, align 8
  %4 = call noalias i8* @malloc(i64 100) #4
  %5 = bitcast i8* %4 to %struct.student*
  store %struct.student* %5, %struct.student** %3, align 8
  store %struct.student* %5, %struct.student** %2, align 8
  %6 = load %struct.student*, %struct.student** %2, align 8
  %7 = getelementptr inbounds %struct.student, %struct.student* %6, i32 0, i32 0
  %8 = getelementptr inbounds [30 x i8], [30 x i8]* %7, i64 0, i64 0
  %9 = load %struct.student*, %struct.student** %2, align 8
  %10 = getelementptr inbounds %struct.student, %struct.student* %9, i32 0, i32 1
  %11 = getelementptr inbounds [30 x i8], [30 x i8]* %10, i64 0, i64 0
  %12 = load %struct.student*, %struct.student** %2, align 8
  %13 = getelementptr inbounds %struct.student, %struct.student* %12, i32 0, i32 2
  %14 = load %struct.student*, %struct.student** %2, align 8
  %15 = getelementptr inbounds %struct.student, %struct.student* %14, i32 0, i32 3
  %16 = load %struct.student*, %struct.student** %2, align 8
  %17 = getelementptr inbounds %struct.student, %struct.student* %16, i32 0, i32 4
  %18 = getelementptr inbounds [30 x i8], [30 x i8]* %17, i64 0, i64 0
  %19 = load %struct.student*, %struct.student** %2, align 8
  %20 = getelementptr inbounds %struct.student, %struct.student* %19, i32 0, i32 5
  %21 = getelementptr inbounds [30 x i8], [30 x i8]* %20, i64 0, i64 0
  %22 = call i32 (i8*, ...) @__isoc99_scanf(i8* getelementptr inbounds ([18 x i8], [18 x i8]* @.str, i64 0, i64 0), i8* %8, i8* %11, i8* %13, i32* %15, i8* %18, i8* %21)
  br label %23

23:                                               ; preds = %0, %49
  %24 = load i32, i32* @n, align 4
  %25 = add nsw i32 %24, 1
  store i32 %25, i32* @n, align 4
  %26 = load i32, i32* @n, align 4
  %27 = icmp eq i32 %26, 1
  br i1 %27, label %28, label %31

28:                                               ; preds = %23
  %29 = load %struct.student*, %struct.student** %2, align 8
  %30 = getelementptr inbounds %struct.student, %struct.student* %29, i32 0, i32 6
  store %struct.student* null, %struct.student** %30, align 8
  br label %35

31:                                               ; preds = %23
  %32 = load %struct.student*, %struct.student** %3, align 8
  %33 = load %struct.student*, %struct.student** %2, align 8
  %34 = getelementptr inbounds %struct.student, %struct.student* %33, i32 0, i32 6
  store %struct.student* %32, %struct.student** %34, align 8
  br label %35

35:                                               ; preds = %31, %28
  %36 = load %struct.student*, %struct.student** %2, align 8
  store %struct.student* %36, %struct.student** %3, align 8
  %37 = call noalias i8* @malloc(i64 100) #4
  %38 = bitcast i8* %37 to %struct.student*
  store %struct.student* %38, %struct.student** %2, align 8
  %39 = load %struct.student*, %struct.student** %2, align 8
  %40 = getelementptr inbounds %struct.student, %struct.student* %39, i32 0, i32 0
  %41 = getelementptr inbounds [30 x i8], [30 x i8]* %40, i64 0, i64 0
  %42 = call i32 (i8*, ...) @__isoc99_scanf(i8* getelementptr inbounds ([3 x i8], [3 x i8]* @.str.1, i64 0, i64 0), i8* %41)
  %43 = load %struct.student*, %struct.student** %2, align 8
  %44 = getelementptr inbounds %struct.student, %struct.student* %43, i32 0, i32 0
  %45 = getelementptr inbounds [30 x i8], [30 x i8]* %44, i64 0, i64 0
  %46 = call i32 @strcmp(i8* %45, i8* getelementptr inbounds ([4 x i8], [4 x i8]* @.str.2, i64 0, i64 0)) #5
  %47 = icmp eq i32 %46, 0
  br i1 %47, label %48, label %49

48:                                               ; preds = %35
  br label %64

49:                                               ; preds = %35
  %50 = load %struct.student*, %struct.student** %2, align 8
  %51 = getelementptr inbounds %struct.student, %struct.student* %50, i32 0, i32 1
  %52 = getelementptr inbounds [30 x i8], [30 x i8]* %51, i64 0, i64 0
  %53 = load %struct.student*, %struct.student** %2, align 8
  %54 = getelementptr inbounds %struct.student, %struct.student* %53, i32 0, i32 2
  %55 = load %struct.student*, %struct.student** %2, align 8
  %56 = getelementptr inbounds %struct.student, %struct.student* %55, i32 0, i32 3
  %57 = load %struct.student*, %struct.student** %2, align 8
  %58 = getelementptr inbounds %struct.student, %struct.student* %57, i32 0, i32 4
  %59 = getelementptr inbounds [30 x i8], [30 x i8]* %58, i64 0, i64 0
  %60 = load %struct.student*, %struct.student** %2, align 8
  %61 = getelementptr inbounds %struct.student, %struct.student* %60, i32 0, i32 5
  %62 = getelementptr inbounds [30 x i8], [30 x i8]* %61, i64 0, i64 0
  %63 = call i32 (i8*, ...) @__isoc99_scanf(i8* getelementptr inbounds ([15 x i8], [15 x i8]* @.str.3, i64 0, i64 0), i8* %52, i8* %54, i32* %56, i8* %59, i8* %62)
  br label %23

64:                                               ; preds = %48
  %65 = load %struct.student*, %struct.student** %3, align 8
  store %struct.student* %65, %struct.student** %1, align 8
  %66 = load %struct.student*, %struct.student** %1, align 8
  store %struct.student* %66, %struct.student** %2, align 8
  %67 = load %struct.student*, %struct.student** %2, align 8
  %68 = getelementptr inbounds %struct.student, %struct.student* %67, i32 0, i32 0
  %69 = getelementptr inbounds [30 x i8], [30 x i8]* %68, i64 0, i64 0
  %70 = load %struct.student*, %struct.student** %2, align 8
  %71 = getelementptr inbounds %struct.student, %struct.student* %70, i32 0, i32 1
  %72 = getelementptr inbounds [30 x i8], [30 x i8]* %71, i64 0, i64 0
  %73 = load %struct.student*, %struct.student** %2, align 8
  %74 = getelementptr inbounds %struct.student, %struct.student* %73, i32 0, i32 2
  %75 = load i8, i8* %74, align 4
  %76 = sext i8 %75 to i32
  %77 = load %struct.student*, %struct.student** %2, align 8
  %78 = getelementptr inbounds %struct.student, %struct.student* %77, i32 0, i32 3
  %79 = load i32, i32* %78, align 8
  %80 = load %struct.student*, %struct.student** %2, align 8
  %81 = getelementptr inbounds %struct.student, %struct.student* %80, i32 0, i32 4
  %82 = getelementptr inbounds [30 x i8], [30 x i8]* %81, i64 0, i64 0
  %83 = load %struct.student*, %struct.student** %2, align 8
  %84 = getelementptr inbounds %struct.student, %struct.student* %83, i32 0, i32 5
  %85 = getelementptr inbounds [30 x i8], [30 x i8]* %84, i64 0, i64 0
  %86 = call i32 (i8*, ...) @printf(i8* getelementptr inbounds ([19 x i8], [19 x i8]* @.str.4, i64 0, i64 0), i8* %69, i8* %72, i32 %76, i32 %79, i8* %82, i8* %85)
  br label %87

87:                                               ; preds = %111, %64
  %88 = load %struct.student*, %struct.student** %2, align 8
  %89 = getelementptr inbounds %struct.student, %struct.student* %88, i32 0, i32 6
  %90 = load %struct.student*, %struct.student** %89, align 8
  store %struct.student* %90, %struct.student** %2, align 8
  %91 = load %struct.student*, %struct.student** %2, align 8
  %92 = getelementptr inbounds %struct.student, %struct.student* %91, i32 0, i32 0
  %93 = getelementptr inbounds [30 x i8], [30 x i8]* %92, i64 0, i64 0
  %94 = load %struct.student*, %struct.student** %2, align 8
  %95 = getelementptr inbounds %struct.student, %struct.student* %94, i32 0, i32 1
  %96 = getelementptr inbounds [30 x i8], [30 x i8]* %95, i64 0, i64 0
  %97 = load %struct.student*, %struct.student** %2, align 8
  %98 = getelementptr inbounds %struct.student, %struct.student* %97, i32 0, i32 2
  %99 = load i8, i8* %98, align 4
  %100 = sext i8 %99 to i32
  %101 = load %struct.student*, %struct.student** %2, align 8
  %102 = getelementptr inbounds %struct.student, %struct.student* %101, i32 0, i32 3
  %103 = load i32, i32* %102, align 8
  %104 = load %struct.student*, %struct.student** %2, align 8
  %105 = getelementptr inbounds %struct.student, %struct.student* %104, i32 0, i32 4
  %106 = getelementptr inbounds [30 x i8], [30 x i8]* %105, i64 0, i64 0
  %107 = load %struct.student*, %struct.student** %2, align 8
  %108 = getelementptr inbounds %struct.student, %struct.student* %107, i32 0, i32 5
  %109 = getelementptr inbounds [30 x i8], [30 x i8]* %108, i64 0, i64 0
  %110 = call i32 (i8*, ...) @printf(i8* getelementptr inbounds ([19 x i8], [19 x i8]* @.str.4, i64 0, i64 0), i8* %93, i8* %96, i32 %100, i32 %103, i8* %106, i8* %109)
  br label %111

111:                                              ; preds = %87
  %112 = load %struct.student*, %struct.student** %2, align 8
  %113 = getelementptr inbounds %struct.student, %struct.student* %112, i32 0, i32 6
  %114 = load %struct.student*, %struct.student** %113, align 8
  %115 = icmp ne %struct.student* %114, null
  br i1 %115, label %87, label %116

116:                                              ; preds = %111
  ret void
}

; Function Attrs: nounwind
declare dso_local noalias i8* @malloc(i64) #1

declare dso_local i32 @__isoc99_scanf(i8*, ...) #2

; Function Attrs: nounwind readonly
declare dso_local i32 @strcmp(i8*, i8*) #3

declare dso_local i32 @printf(i8*, ...) #2


!llvm.module.flags = !{!0}
!llvm.ident = !{!1}

!0 = !{i32 1, !"wchar_size", i32 4}
!1 = !{!"clang version 10.0.0-4ubuntu1 "}
